target datalayout = "e-m:e-p270:32:32-p271:32:32-p272:64:64-i64:64-i128:128-f80:128-n8:16:32:64-S128"
target triple = "x86_64-unknown-linux-gnu"

%"class.icu_75::UTF8CollationIterator" = type { %"class.icu_75::CollationIterator.base", ptr, i32, i32 }
%"class.icu_75::CollationIterator.base" = type <{ %"class.icu_75::UObject", ptr, ptr, %"class.icu_75::CollationIterator::CEBuffer", i32, [4 x i8], ptr, i32, i8 }>
%"class.icu_75::UObject" = type { ptr }
%"class.icu_75::CollationIterator::CEBuffer" = type { i32, %"class.icu_75::MaybeStackArray.0" }
%"class.icu_75::MaybeStackArray.0" = type { ptr, i32, i8, [40 x i64] }
%"class.icu_75::FCDUTF8CollationIterator" = type { %"class.icu_75::UTF8CollationIterator", i32, i32, i32, ptr, %"class.icu_75::UnicodeString" }
%"class.icu_75::UnicodeString" = type { %"class.icu_75::Replaceable", %"union.icu_75::UnicodeString::StackBufferOrFields" }
%"class.icu_75::Replaceable" = type { %"class.icu_75::UObject" }
%"union.icu_75::UnicodeString::StackBufferOrFields" = type { %struct.anon.1, [32 x i8] }
%struct.anon.1 = type { i16, i32, i32, ptr }

; Function Attrs: mustprogress nounwind uwtable
define noundef i32 @_ZNK6icu_7524FCDUTF8CollationIterator9getOffsetEv(ptr noundef nonnull align 8 dereferenceable(496) %this) unnamed_addr #0 align 2 {
entry:
  %retval = alloca i32, align 4
  %this.addr = alloca ptr, align 8
  store ptr %this, ptr %this.addr, align 8
  %this1 = load ptr, ptr %this.addr, align 8
  %state = getelementptr inbounds %"class.icu_75::FCDUTF8CollationIterator", ptr %this1, i32 0, i32 1
  %0 = load i32, ptr %state, align 8
  %cmp = icmp ne i32 %0, 3
  br i1 %cmp, label %if.then, label %if.else

if.then:                                          ; preds = %entry
  %pos = getelementptr inbounds %"class.icu_75::UTF8CollationIterator", ptr %this1, i32 0, i32 2
  %1 = load i32, ptr %pos, align 8
  store i32 %1, ptr %retval, align 4
  br label %return

if.else:                                          ; preds = %entry
  %pos2 = getelementptr inbounds %"class.icu_75::UTF8CollationIterator", ptr %this1, i32 0, i32 2
  %2 = load i32, ptr %pos2, align 8
  %cmp3 = icmp eq i32 %2, 0
  br i1 %cmp3, label %if.then4, label %if.else5

if.then4:                                         ; preds = %if.else
  %start = getelementptr inbounds %"class.icu_75::FCDUTF8CollationIterator", ptr %this1, i32 0, i32 2
  %3 = load i32, ptr %start, align 4
  store i32 %3, ptr %retval, align 4
  br label %return

if.else5:                                         ; preds = %if.else
  %limit = getelementptr inbounds %"class.icu_75::FCDUTF8CollationIterator", ptr %this1, i32 0, i32 3
  %4 = load i32, ptr %limit, align 8
  store i32 %4, ptr %retval, align 4
  br label %return

return:                                           ; preds = %if.else5, %if.then4, %if.then
  %5 = load i32, ptr %retval, align 4
  ret i32 %5
}