; Function Attrs: mustprogress nofree norecurse nosync nounwind willreturn memory(read, inaccessiblemem: none) uwtable
define noundef i32 @_ZNK6icu_7524FCDUTF8CollationIterator9getOffsetEv(ptr nocapture noundef nonnull readonly align 8 dereferenceable(496) %this) unnamed_addr #12 align 2 {
entry:
  %state = getelementptr inbounds i8, ptr %this, i64 408
  %0 = load i32, ptr %state, align 8
  %cmp.not = icmp eq i32 %0, 3
  %pos2 = getelementptr inbounds i8, ptr %this, i64 400
  br i1 %cmp.not, label %if.else, label %return

if.else:                                          ; preds = %entry
  %1 = load i32, ptr %pos2, align 8
  %cmp3 = icmp eq i32 %1, 0
  br i1 %cmp3, label %if.then4, label %if.else5

if.then4:                                         ; preds = %if.else
  %start = getelementptr inbounds i8, ptr %this, i64 412
  br label %return

if.else5:                                         ; preds = %if.else
  %limit = getelementptr inbounds i8, ptr %this, i64 416
  br label %return

return:                                           ; preds = %entry, %if.else5, %if.then4
  %retval.0.in = phi ptr [ %start, %if.then4 ], [ %limit, %if.else5 ], [ %pos2, %entry ]
  %retval.0 = load i32, ptr %retval.0.in, align 4
  ret i32 %retval.0
}